; Function Attrs: mustprogress uwtable
define internal void @_ZL8init_comPK10gmx_mtop_tiP18gmx_ana_selparam_tPv(ptr readnone captures(none) %0, i32 %1, ptr noundef readonly captures(none) %2, ptr noundef initializes((32, 40), (56, 60)) %3) #0 {
  %5 = getelementptr inbounds nuw i8, ptr %2, i64 40
  %6 = load i32, ptr %5, align 8, !tbaa !21
  %7 = shl i32 %6, 2
  %8 = and i32 %7, 16
  %9 = getelementptr inbounds nuw i8, ptr %3, i64 56
  %10 = or disjoint i32 %8, 1
  store i32 %10, ptr %9, align 8, !tbaa !19
  %11 = load ptr, ptr %3, align 8, !tbaa !20
  %12 = getelementptr inbounds nuw i8, ptr %3, i64 40
  %13 = load i8, ptr %12, align 8, !tbaa !17, !range !31, !noundef !32
  %14 = trunc nuw i8 %13 to i1
  %15 = select i1 %14, i32 4, i32 3
  %16 = tail call noundef ptr @_ZN3gmx29PositionCalculationCollection17createCalculationE11e_poscalc_ti(ptr noundef nonnull align 8 dereferenceable(8) %11, i32 noundef %15, i32 noundef %10)
  %17 = getelementptr inbounds nuw i8, ptr %3, i64 32
  store ptr %16, ptr %17, align 8, !tbaa !7
  %18 = getelementptr inbounds nuw i8, ptr %3, i64 8
  tail call void @_Z28gmx_ana_poscalc_set_maxindexP17gmx_ana_poscalc_tP15gmx_ana_index_t(ptr noundef %16, ptr noundef nonnull %18)
  ret void
}